target datalayout = "e-m:e-p270:32:32-p271:32:32-p272:64:64-i64:64-i128:128-f80:128-n8:16:32:64-S128"
target triple = "x86_64-pc-linux-gnu"

%struct.PyVarObject = type { %struct._object, i64 }
%struct._object = type { %union.anon, ptr }
%union.anon = type { i64 }
%struct.PyTupleObject = type { %struct.PyVarObject, [1 x ptr] }

@.str.8 = private unnamed_addr constant [9 x i8] c"iterable\00", align 1
@.str.9 = private unnamed_addr constant [6 x i8] c"start\00", align 1
@PyExc_TypeError = external global ptr, align 8
@.str.10 = private unnamed_addr constant [49 x i8] c"enumerate() missing required argument 'iterable'\00", align 1
@.str.11 = private unnamed_addr constant [49 x i8] c"enumerate() takes at most 2 arguments (%d given)\00", align 1
@.str.12 = private unnamed_addr constant [52 x i8] c"'%S' is an invalid keyword argument for enumerate()\00", align 1

; Function Attrs: inlinehint nounwind uwtable
define internal i64 @Py_SIZE(ptr noundef %0) #3 {
  %2 = alloca ptr, align 8
  store ptr %0, ptr %2, align 8, !tbaa !4
  %3 = load ptr, ptr %2, align 8, !tbaa !4
  %4 = getelementptr inbounds nuw %struct.PyVarObject, ptr %3, i32 0, i32 1
  %5 = load i64, ptr %4, align 8, !tbaa !128
  ret i64 %5
}

; Function Attrs: nounwind uwtable
define internal i32 @check_keyword(ptr noundef %0, i32 noundef %1, ptr noundef %2) #0 {
  %4 = alloca i32, align 4
  %5 = alloca ptr, align 8
  %6 = alloca i32, align 4
  %7 = alloca ptr, align 8
  %8 = alloca ptr, align 8
  %9 = alloca i32, align 4
  store ptr %0, ptr %5, align 8, !tbaa !4
  store i32 %1, ptr %6, align 4, !tbaa !26
  store ptr %2, ptr %7, align 8, !tbaa !120
  call void @llvm.lifetime.start.p0(i64 8, ptr %8) #7
  %10 = load ptr, ptr %5, align 8, !tbaa !4
  %11 = getelementptr inbounds nuw %struct.PyTupleObject, ptr %10, i32 0, i32 1
  %12 = load i32, ptr %6, align 4, !tbaa !26
  %13 = sext i32 %12 to i64
  %14 = getelementptr [1 x ptr], ptr %11, i64 0, i64 %13
  %15 = load ptr, ptr %14, align 8, !tbaa !4
  store ptr %15, ptr %8, align 8, !tbaa !4
  %16 = load ptr, ptr %8, align 8, !tbaa !4
  %17 = load ptr, ptr %7, align 8, !tbaa !120
  %18 = call i32 @_PyUnicode_EqualToASCIIString(ptr noundef %16, ptr noundef %17)
  %19 = icmp ne i32 %18, 0
  br i1 %19, label %24, label %20

20:                                               ; preds = %3
  %21 = load ptr, ptr @PyExc_TypeError, align 8, !tbaa !4
  %22 = load ptr, ptr %8, align 8, !tbaa !4
  %23 = call ptr (ptr, ptr, ...) @PyErr_Format(ptr noundef %21, ptr noundef @.str.12, ptr noundef %22)
  store i32 0, ptr %4, align 4
  store i32 1, ptr %9, align 4
  br label %25

24:                                               ; preds = %3
  store i32 1, ptr %4, align 4
  store i32 1, ptr %9, align 4
  br label %25

25:                                               ; preds = %24, %20
  call void @llvm.lifetime.end.p0(i64 8, ptr %8) #7
  %26 = load i32, ptr %4, align 4
  ret i32 %26
}

; Function Attrs: inlinehint nounwind uwtable
define internal i64 @PyTuple_GET_SIZE(ptr noundef %0) #3 {
  %2 = alloca ptr, align 8
  %3 = alloca ptr, align 8
  store ptr %0, ptr %2, align 8, !tbaa !4
  call void @llvm.lifetime.start.p0(i64 8, ptr %3) #7
  %4 = load ptr, ptr %2, align 8, !tbaa !4
  store ptr %4, ptr %3, align 8, !tbaa !9
  %5 = load ptr, ptr %3, align 8, !tbaa !9
  %6 = call i64 @Py_SIZE(ptr noundef %5)
  call void @llvm.lifetime.end.p0(i64 8, ptr %3) #7
  ret i64 %6
}

; Function Attrs: inlinehint nounwind uwtable
define internal i64 @_PyVectorcall_NARGS(i64 noundef %0) #3 {
  %2 = alloca i64, align 8
  store i64 %0, ptr %2, align 8, !tbaa !30
  %3 = load i64, ptr %2, align 8, !tbaa !30
  %4 = and i64 %3, 9223372036854775807
  ret i64 %4
}

; Function Attrs: nounwind uwtable
define internal ptr @enumerate_vectorcall(ptr noundef %0, ptr noundef %1, i64 noundef %2, ptr noundef %3) #0 {
  %5 = alloca ptr, align 8
  %6 = alloca ptr, align 8
  %7 = alloca ptr, align 8
  %8 = alloca i64, align 8
  %9 = alloca ptr, align 8
  %10 = alloca ptr, align 8
  %11 = alloca i64, align 8
  %12 = alloca i64, align 8
  %13 = alloca i32, align 4
  %14 = alloca ptr, align 8
  store ptr %0, ptr %6, align 8, !tbaa !4
  store ptr %1, ptr %7, align 8, !tbaa !31
  store i64 %2, ptr %8, align 8, !tbaa !30
  store ptr %3, ptr %9, align 8, !tbaa !4
  call void @llvm.lifetime.start.p0(i64 8, ptr %10) #7
  %15 = load ptr, ptr %6, align 8, !tbaa !4
  store ptr %15, ptr %10, align 8, !tbaa !29
  call void @llvm.lifetime.start.p0(i64 8, ptr %11) #7
  %16 = load i64, ptr %8, align 8, !tbaa !30
  %17 = call i64 @_PyVectorcall_NARGS(i64 noundef %16)
  store i64 %17, ptr %11, align 8, !tbaa !30
  call void @llvm.lifetime.start.p0(i64 8, ptr %12) #7
  store i64 0, ptr %12, align 8, !tbaa !30
  %18 = load ptr, ptr %9, align 8, !tbaa !4
  %19 = icmp ne ptr %18, null
  br i1 %19, label %20, label %23

20:                                               ; preds = %4
  %21 = load ptr, ptr %9, align 8, !tbaa !4
  %22 = call i64 @PyTuple_GET_SIZE(ptr noundef %21)
  store i64 %22, ptr %12, align 8, !tbaa !30
  br label %23

23:                                               ; preds = %20, %4
  %24 = load i64, ptr %11, align 8, !tbaa !30
  %25 = load i64, ptr %12, align 8, !tbaa !30
  %26 = add i64 %24, %25
  %27 = icmp eq i64 %26, 2
  br i1 %27, label %28, label %85

28:                                               ; preds = %23
  %29 = load i64, ptr %12, align 8, !tbaa !30
  %30 = icmp eq i64 %29, 1
  br i1 %30, label %31, label %37

31:                                               ; preds = %28
  %32 = load ptr, ptr %9, align 8, !tbaa !4
  %33 = call i32 @check_keyword(ptr noundef %32, i32 noundef 0, ptr noundef @.str.9)
  %34 = icmp ne i32 %33, 0
  br i1 %34, label %36, label %35

35:                                               ; preds = %31
  store ptr null, ptr %5, align 8
  store i32 1, ptr %13, align 4
  br label %115

36:                                               ; preds = %31
  br label %76

37:                                               ; preds = %28
  %38 = load i64, ptr %12, align 8, !tbaa !30
  %39 = icmp eq i64 %38, 2
  br i1 %39, label %40, label %75

40:                                               ; preds = %37
  call void @llvm.lifetime.start.p0(i64 8, ptr %14) #7
  %41 = load ptr, ptr %9, align 8, !tbaa !4
  %42 = getelementptr inbounds nuw %struct.PyTupleObject, ptr %41, i32 0, i32 1
  %43 = getelementptr [1 x ptr], ptr %42, i64 0, i64 0
  %44 = load ptr, ptr %43, align 8, !tbaa !4
  store ptr %44, ptr %14, align 8, !tbaa !4
  %45 = load ptr, ptr %14, align 8, !tbaa !4
  %46 = call i32 @_PyUnicode_EqualToASCIIString(ptr noundef %45, ptr noundef @.str.9)
  %47 = icmp ne i32 %46, 0
  br i1 %47, label %48, label %62

48:                                               ; preds = %40
  %49 = load ptr, ptr %9, align 8, !tbaa !4
  %50 = call i32 @check_keyword(ptr noundef %49, i32 noundef 1, ptr noundef @.str.8)
  %51 = icmp ne i32 %50, 0
  br i1 %51, label %53, label %52

52:                                               ; preds = %48
  store ptr null, ptr %5, align 8
  store i32 1, ptr %13, align 4
  br label %72

53:                                               ; preds = %48
  %54 = load ptr, ptr %10, align 8, !tbaa !29
  %55 = load ptr, ptr %7, align 8, !tbaa !31
  %56 = getelementptr ptr, ptr %55, i64 1
  %57 = load ptr, ptr %56, align 8, !tbaa !4
  %58 = load ptr, ptr %7, align 8, !tbaa !31
  %59 = getelementptr ptr, ptr %58, i64 0
  %60 = load ptr, ptr %59, align 8, !tbaa !4
  %61 = call ptr @enum_new_impl(ptr noundef %54, ptr noundef %57, ptr noundef %60)
  store ptr %61, ptr %5, align 8
  store i32 1, ptr %13, align 4
  br label %72

62:                                               ; preds = %40
  %63 = load ptr, ptr %9, align 8, !tbaa !4
  %64 = call i32 @check_keyword(ptr noundef %63, i32 noundef 0, ptr noundef @.str.8)
  %65 = icmp ne i32 %64, 0
  br i1 %65, label %66, label %70

66:                                               ; preds = %62
  %67 = load ptr, ptr %9, align 8, !tbaa !4
  %68 = call i32 @check_keyword(ptr noundef %67, i32 noundef 1, ptr noundef @.str.9)
  %69 = icmp ne i32 %68, 0
  br i1 %69, label %71, label %70

70:                                               ; preds = %66, %62
  store ptr null, ptr %5, align 8
  store i32 1, ptr %13, align 4
  br label %72

71:                                               ; preds = %66
  store i32 0, ptr %13, align 4
  br label %72

72:                                               ; preds = %71, %70, %53, %52
  call void @llvm.lifetime.end.p0(i64 8, ptr %14) #7
  %73 = load i32, ptr %13, align 4
  switch i32 %73, label %115 [
    i32 0, label %74
  ]

74:                                               ; preds = %72
  br label %75

75:                                               ; preds = %74, %37
  br label %76

76:                                               ; preds = %75, %36
  %77 = load ptr, ptr %10, align 8, !tbaa !29
  %78 = load ptr, ptr %7, align 8, !tbaa !31
  %79 = getelementptr ptr, ptr %78, i64 0
  %80 = load ptr, ptr %79, align 8, !tbaa !4
  %81 = load ptr, ptr %7, align 8, !tbaa !31
  %82 = getelementptr ptr, ptr %81, i64 1
  %83 = load ptr, ptr %82, align 8, !tbaa !4
  %84 = call ptr @enum_new_impl(ptr noundef %77, ptr noundef %80, ptr noundef %83)
  store ptr %84, ptr %5, align 8
  store i32 1, ptr %13, align 4
  br label %115

85:                                               ; preds = %23
  %86 = load i64, ptr %11, align 8, !tbaa !30
  %87 = load i64, ptr %12, align 8, !tbaa !30
  %88 = add i64 %86, %87
  %89 = icmp eq i64 %88, 1
  br i1 %89, label %90, label %104

90:                                               ; preds = %85
  %91 = load i64, ptr %12, align 8, !tbaa !30
  %92 = icmp eq i64 %91, 1
  br i1 %92, label %93, label %98

93:                                               ; preds = %90
  %94 = load ptr, ptr %9, align 8, !tbaa !4
  %95 = call i32 @check_keyword(ptr noundef %94, i32 noundef 0, ptr noundef @.str.8)
  %96 = icmp ne i32 %95, 0
  br i1 %96, label %98, label %97

97:                                               ; preds = %93
  store ptr null, ptr %5, align 8
  store i32 1, ptr %13, align 4
  br label %115

98:                                               ; preds = %93, %90
  %99 = load ptr, ptr %10, align 8, !tbaa !29
  %100 = load ptr, ptr %7, align 8, !tbaa !31
  %101 = getelementptr ptr, ptr %100, i64 0
  %102 = load ptr, ptr %101, align 8, !tbaa !4
  %103 = call ptr @enum_new_impl(ptr noundef %99, ptr noundef %102, ptr noundef null)
  store ptr %103, ptr %5, align 8
  store i32 1, ptr %13, align 4
  br label %115

104:                                              ; preds = %85
  %105 = load i64, ptr %11, align 8, !tbaa !30
  %106 = icmp eq i64 %105, 0
  br i1 %106, label %107, label %109

107:                                              ; preds = %104
  %108 = load ptr, ptr @PyExc_TypeError, align 8, !tbaa !4
  call void @PyErr_SetString(ptr noundef %108, ptr noundef @.str.10)
  store ptr null, ptr %5, align 8
  store i32 1, ptr %13, align 4
  br label %115

109:                                              ; preds = %104
  %110 = load ptr, ptr @PyExc_TypeError, align 8, !tbaa !4
  %111 = load i64, ptr %11, align 8, !tbaa !30
  %112 = load i64, ptr %12, align 8, !tbaa !30
  %113 = add i64 %111, %112
  %114 = call ptr (ptr, ptr, ...) @PyErr_Format(ptr noundef %110, ptr noundef @.str.11, i64 noundef %113)
  store ptr null, ptr %5, align 8
  store i32 1, ptr %13, align 4
  br label %115

115:                                              ; preds = %109, %107, %98, %97, %76, %72, %35
  call void @llvm.lifetime.end.p0(i64 8, ptr %12) #7
  call void @llvm.lifetime.end.p0(i64 8, ptr %11) #7
  call void @llvm.lifetime.end.p0(i64 8, ptr %10) #7
  %116 = load ptr, ptr %5, align 8
  ret ptr %116
}