; Function Attrs: nounwind uwtable
define internal ptr @enumerate_vectorcall(ptr noundef %0, ptr noundef readonly captures(none) %1, i64 noundef %2, ptr noundef readonly %3) #0 {
  %5 = and i64 %2, 9223372036854775807
  %.not = icmp eq ptr %3, null
  br i1 %.not, label %8, label %6

6:                                                ; preds = %4
  %7 = getelementptr i8, ptr %3, i64 16
  %.val = load i64, ptr %7, align 8, !tbaa !112
  br label %8

8:                                                ; preds = %6, %4
  %.031 = phi i64 [ %.val, %6 ], [ 0, %4 ]
  %9 = add i64 %.031, %5
  switch i64 %9, label %56 [
    i64 2, label %10
    i64 1, label %46
  ]

10:                                               ; preds = %8
  switch i64 %.031, label %check_keyword.exit [
    i64 1, label %11
    i64 2, label %17
  ]

11:                                               ; preds = %10
  %12 = getelementptr inbounds nuw i8, ptr %3, i64 24
  %13 = load ptr, ptr %12, align 8, !tbaa !29
  %14 = tail call i32 @_PyUnicode_EqualToASCIIString(ptr noundef %13, ptr noundef nonnull @.str.9) #4
  %.not.i = icmp eq i32 %14, 0
  br i1 %.not.i, label %check_keyword.exit.thread, label %check_keyword.exit

check_keyword.exit.thread:                        ; preds = %11
  %15 = load ptr, ptr @PyExc_TypeError, align 8, !tbaa !29
  %16 = tail call ptr (ptr, ptr, ...) @PyErr_Format(ptr noundef %15, ptr noundef nonnull @.str.12, ptr noundef %13) #4
  br label %check_keyword.exit49.thread61

17:                                               ; preds = %10
  %18 = getelementptr inbounds nuw i8, ptr %3, i64 24
  %19 = load ptr, ptr %18, align 8, !tbaa !29
  %20 = tail call i32 @_PyUnicode_EqualToASCIIString(ptr noundef %19, ptr noundef nonnull @.str.9) #4
  %.not35 = icmp eq i32 %20, 0
  br i1 %.not35, label %31, label %21

21:                                               ; preds = %17
  %22 = getelementptr i8, ptr %3, i64 32
  %23 = load ptr, ptr %22, align 8, !tbaa !29
  %24 = tail call i32 @_PyUnicode_EqualToASCIIString(ptr noundef %23, ptr noundef nonnull @.str.8) #4
  %.not.i41 = icmp eq i32 %24, 0
  br i1 %.not.i41, label %check_keyword.exit43.thread, label %check_keyword.exit43

check_keyword.exit43.thread:                      ; preds = %21
  %25 = load ptr, ptr @PyExc_TypeError, align 8, !tbaa !29
  %26 = tail call ptr (ptr, ptr, ...) @PyErr_Format(ptr noundef %25, ptr noundef nonnull @.str.12, ptr noundef %23) #4
  br label %check_keyword.exit49.thread61

check_keyword.exit43:                             ; preds = %21
  %27 = getelementptr i8, ptr %1, i64 8
  %28 = load ptr, ptr %27, align 8, !tbaa !29
  %29 = load ptr, ptr %1, align 8, !tbaa !29
  %30 = tail call fastcc ptr @enum_new_impl(ptr noundef %0, ptr noundef %28, ptr noundef %29)
  br label %check_keyword.exit49.thread61

31:                                               ; preds = %17
  %32 = load ptr, ptr %18, align 8, !tbaa !29
  %33 = tail call i32 @_PyUnicode_EqualToASCIIString(ptr noundef %32, ptr noundef nonnull @.str.8) #4
  %.not.i44 = icmp eq i32 %33, 0
  br i1 %.not.i44, label %check_keyword.exit46.thread, label %check_keyword.exit46

check_keyword.exit46.thread:                      ; preds = %31
  %34 = load ptr, ptr @PyExc_TypeError, align 8, !tbaa !29
  %35 = tail call ptr (ptr, ptr, ...) @PyErr_Format(ptr noundef %34, ptr noundef nonnull @.str.12, ptr noundef %32) #4
  br label %check_keyword.exit49.thread61

check_keyword.exit46:                             ; preds = %31
  %36 = getelementptr i8, ptr %3, i64 32
  %37 = load ptr, ptr %36, align 8, !tbaa !29
  %38 = tail call i32 @_PyUnicode_EqualToASCIIString(ptr noundef %37, ptr noundef nonnull @.str.9) #4
  %.not.i47 = icmp eq i32 %38, 0
  br i1 %.not.i47, label %39, label %check_keyword.exit

39:                                               ; preds = %check_keyword.exit46
  %40 = load ptr, ptr @PyExc_TypeError, align 8, !tbaa !29
  %41 = tail call ptr (ptr, ptr, ...) @PyErr_Format(ptr noundef %40, ptr noundef nonnull @.str.12, ptr noundef %37) #4
  br label %check_keyword.exit49.thread61

check_keyword.exit:                               ; preds = %check_keyword.exit46, %11, %10
  %42 = load ptr, ptr %1, align 8, !tbaa !29
  %43 = getelementptr i8, ptr %1, i64 8
  %44 = load ptr, ptr %43, align 8, !tbaa !29
  %45 = tail call fastcc ptr @enum_new_impl(ptr noundef %0, ptr noundef %42, ptr noundef %44)
  br label %check_keyword.exit49.thread61

46:                                               ; preds = %8
  %47 = icmp eq i64 %.031, 1
  br i1 %47, label %48, label %check_keyword.exit52

48:                                               ; preds = %46
  %49 = getelementptr inbounds nuw i8, ptr %3, i64 24
  %50 = load ptr, ptr %49, align 8, !tbaa !29
  %51 = tail call i32 @_PyUnicode_EqualToASCIIString(ptr noundef %50, ptr noundef nonnull @.str.8) #4
  %.not.i50 = icmp eq i32 %51, 0
  br i1 %.not.i50, label %check_keyword.exit52.thread, label %check_keyword.exit52

check_keyword.exit52.thread:                      ; preds = %48
  %52 = load ptr, ptr @PyExc_TypeError, align 8, !tbaa !29
  %53 = tail call ptr (ptr, ptr, ...) @PyErr_Format(ptr noundef %52, ptr noundef nonnull @.str.12, ptr noundef %50) #4
  br label %check_keyword.exit49.thread61

check_keyword.exit52:                             ; preds = %48, %46
  %54 = load ptr, ptr %1, align 8, !tbaa !29
  %55 = tail call fastcc ptr @enum_new_impl(ptr noundef %0, ptr noundef %54, ptr noundef null)
  br label %check_keyword.exit49.thread61

56:                                               ; preds = %8
  %57 = icmp eq i64 %5, 0
  %58 = load ptr, ptr @PyExc_TypeError, align 8, !tbaa !29
  br i1 %57, label %59, label %60

59:                                               ; preds = %56
  tail call void @PyErr_SetString(ptr noundef %58, ptr noundef nonnull @.str.10) #4
  br label %check_keyword.exit49.thread61

60:                                               ; preds = %56
  %61 = tail call ptr (ptr, ptr, ...) @PyErr_Format(ptr noundef %58, ptr noundef nonnull @.str.11, i64 noundef %9) #4
  br label %check_keyword.exit49.thread61

check_keyword.exit49.thread61:                    ; preds = %39, %check_keyword.exit46.thread, %check_keyword.exit43.thread, %check_keyword.exit43, %check_keyword.exit52.thread, %check_keyword.exit.thread, %60, %59, %check_keyword.exit52, %check_keyword.exit
  %.0 = phi ptr [ %45, %check_keyword.exit ], [ %55, %check_keyword.exit52 ], [ null, %59 ], [ null, %60 ], [ null, %check_keyword.exit.thread ], [ null, %check_keyword.exit52.thread ], [ null, %39 ], [ null, %check_keyword.exit46.thread ], [ null, %check_keyword.exit43.thread ], [ %30, %check_keyword.exit43 ]
  ret ptr %.0
}